target datalayout = "e-m:e-p270:32:32-p271:32:32-p272:64:64-i64:64-i128:128-f80:128-n8:16:32:64-S128"
target triple = "x86_64-pc-linux-gnu"

@_ZN3net23CachedNetworkParametersC1Ev = unnamed_addr alias void (ptr), ptr @_ZN3net23CachedNetworkParametersC2Ev

; Function Attrs: mustprogress uwtable
define noundef ptr @_ZNK3net23CachedNetworkParameters3NewEPN6google8protobuf5ArenaE(ptr noundef nonnull align 8 dereferenceable(72) %0, ptr noundef %1) unnamed_addr #1 align 2 personality ptr @__gxx_personality_v0 {
  %3 = alloca ptr, align 8
  %4 = alloca ptr, align 8
  %5 = alloca ptr, align 8
  %6 = alloca ptr, align 8
  %7 = alloca i32, align 4
  store ptr %0, ptr %3, align 8, !tbaa !3
  store ptr %1, ptr %4, align 8, !tbaa !39
  call void @llvm.lifetime.start.p0(i64 8, ptr %5) #19
  %8 = call noalias noundef nonnull ptr @_Znwm(i64 noundef 72) #20
  invoke void @_ZN3net23CachedNetworkParametersC1Ev(ptr noundef nonnull align 8 dereferenceable(72) %8)
          to label %9 unwind label %15

9:                                                ; preds = %2
  store ptr %8, ptr %5, align 8, !tbaa !3
  %10 = load ptr, ptr %4, align 8, !tbaa !39
  %11 = icmp ne ptr %10, null
  br i1 %11, label %12, label %19

12:                                               ; preds = %9
  %13 = load ptr, ptr %4, align 8, !tbaa !39
  %14 = load ptr, ptr %5, align 8, !tbaa !3
  call void @_ZN6google8protobuf5Arena3OwnIN3net23CachedNetworkParametersEEEvPT_(ptr noundef nonnull align 8 dereferenceable(136) %13, ptr noundef %14)
  br label %19

15:                                               ; preds = %2
  %16 = landingpad { ptr, i32 }
          cleanup
  %17 = extractvalue { ptr, i32 } %16, 0
  store ptr %17, ptr %6, align 8
  %18 = extractvalue { ptr, i32 } %16, 1
  store i32 %18, ptr %7, align 4
  call void @_ZdlPv(ptr noundef %8) #21
  call void @llvm.lifetime.end.p0(i64 8, ptr %5) #19
  br label %21

19:                                               ; preds = %12, %9
  %20 = load ptr, ptr %5, align 8, !tbaa !3
  call void @llvm.lifetime.end.p0(i64 8, ptr %5) #19
  ret ptr %20

21:                                               ; preds = %15
  %22 = load ptr, ptr %6, align 8
  %23 = load i32, ptr %7, align 4
  %24 = insertvalue { ptr, i32 } poison, ptr %22, 0
  %25 = insertvalue { ptr, i32 } %24, i32 %23, 1
  resume { ptr, i32 } %25
}