; Function Attrs: mustprogress uwtable
define noundef nonnull ptr @_ZNK3net23CachedNetworkParameters3NewEPN6google8protobuf5ArenaE(ptr nonnull readnone align 8 captures(none) %0, ptr noundef %1) unnamed_addr #1 align 2 personality ptr @__gxx_personality_v0 {
  %3 = tail call noalias noundef nonnull dereferenceable(72) ptr @_Znwm(i64 noundef 72) #22
  invoke void @_ZN3net23CachedNetworkParametersC1Ev(ptr noundef nonnull align 8 dereferenceable(72) %3)
          to label %4 unwind label %6

4:                                                ; preds = %2
  %.not = icmp eq ptr %1, null
  br i1 %.not, label %8, label %5

5:                                                ; preds = %4
  tail call void @_ZN6google8protobuf5Arena3OwnIN3net23CachedNetworkParametersEEEvPT_(ptr noundef nonnull align 8 dereferenceable(136) %1, ptr noundef nonnull %3)
  br label %8

6:                                                ; preds = %2
  %7 = landingpad { ptr, i32 }
          cleanup
  tail call void @_ZdlPv(ptr noundef nonnull %3) #23
  resume { ptr, i32 } %7

8:                                                ; preds = %5, %4
  ret ptr %3
}